target datalayout = "e-m:e-p270:32:32-p271:32:32-p272:64:64-i64:64-i128:128-f80:128-n8:16:32:64-S128"
target triple = "x86_64-pc-linux-gnu"

%struct._zend_array = type { %struct._zend_refcounted_h, %union.anon.4, i32, %union.anon.6, i32, i32, i32, i32, i64, ptr }
%struct._zend_refcounted_h = type { i32, %union.anon.3 }
%union.anon.3 = type { i32 }
%union.anon.4 = type { i32 }
%union.anon.6 = type { ptr }
%struct._phpdbg_watchpoint_t = type { %union.anon.27, i64, i32, ptr, %struct._zend_array, ptr, %union.anon.28 }
%union.anon.27 = type { ptr }
%union.anon.28 = type { %struct._zend_array }
%struct._phpdbg_watch_element = type { i32, ptr, i8, ptr, ptr, %struct._zend_array, ptr, ptr, ptr, %union.anon.29 }
%union.anon.29 = type { %struct._zend_array }

; Function Attrs: nounwind uwtable
define hidden void @phpdbg_clean_watch_element(ptr noundef %0) #0 {
  %2 = alloca ptr, align 8
  %3 = alloca ptr, align 8
  %4 = alloca ptr, align 8
  store ptr %0, ptr %3, align 8
  %5 = load ptr, ptr %3, align 8
  %6 = getelementptr inbounds %struct._phpdbg_watch_element, ptr %5, i32 0, i32 1
  %7 = load ptr, ptr %6, align 8
  %8 = getelementptr inbounds %struct._phpdbg_watchpoint_t, ptr %7, i32 0, i32 4
  store ptr %8, ptr %4, align 8
  %9 = load ptr, ptr %3, align 8
  call void @phpdbg_unwatch_parent_ht(ptr noundef %9)
  %10 = load ptr, ptr %4, align 8
  %11 = load ptr, ptr %3, align 8
  %12 = getelementptr inbounds %struct._phpdbg_watch_element, ptr %11, i32 0, i32 8
  %13 = load ptr, ptr %12, align 8
  %14 = call i32 @zend_hash_del(ptr noundef %10, ptr noundef %13)
  %15 = load ptr, ptr %4, align 8
  store ptr %15, ptr %2, align 8
  %16 = load ptr, ptr %2, align 8
  %17 = getelementptr inbounds %struct._zend_array, ptr %16, i32 0, i32 5
  %18 = load i32, ptr %17, align 4
  %19 = icmp eq i32 %18, 0
  br i1 %19, label %20, label %24

20:                                               ; preds = %1
  %21 = load ptr, ptr %3, align 8
  %22 = getelementptr inbounds %struct._phpdbg_watch_element, ptr %21, i32 0, i32 1
  %23 = load ptr, ptr %22, align 8
  call void @phpdbg_remove_watchpoint(ptr noundef %23)
  br label %24

24:                                               ; preds = %20, %1
  ret void
}