; Function Attrs: nounwind uwtable
define hidden void @phpdbg_clean_watch_element(ptr nocapture noundef readonly %0) local_unnamed_addr #0 {
  %2 = getelementptr inbounds i8, ptr %0, i64 8
  %3 = load ptr, ptr %2, align 8
  %4 = getelementptr inbounds i8, ptr %3, i64 32
  tail call void @phpdbg_unwatch_parent_ht(ptr noundef %0)
  %5 = getelementptr inbounds i8, ptr %0, i64 112
  %6 = load ptr, ptr %5, align 8
  %7 = tail call i32 @zend_hash_del(ptr noundef nonnull %4, ptr noundef %6) #17
  %8 = getelementptr inbounds i8, ptr %3, i64 60
  %9 = load i32, ptr %8, align 4
  %10 = icmp eq i32 %9, 0
  br i1 %10, label %11, label %13

11:                                               ; preds = %1
  %12 = load ptr, ptr %2, align 8
  tail call void @phpdbg_remove_watchpoint(ptr noundef %12)
  br label %13

13:                                               ; preds = %11, %1
  ret void
}